#include <math.h>
#include <stdio.h>
#include <stdlib.h>
#include <string.h>

int main(){
int n,sum=0;
scanf("%d",&n);
for(int i=1;i<=n;i++){
if(i%7!=0&&(i-7)%10!=0&&i<70){
sum+=i*i;
}
else if(i%7!=0&&(i-7)%10!=0&&i>79){
sum+=i*i;
}
}
printf ("%d",sum);
return 0;
}