; ModuleID = 'source-C-CXX/29/2778.c'
source_filename = "source-C-CXX/29/2778.c"
target datalayout = "e-m:e-p270:32:32-p271:32:32-p272:64:64-i64:64-f80:128-n8:16:32:64-S128"
target triple = "x86_64-pc-linux-gnu"

@.str = private unnamed_addr constant [3 x i8] c"%d\00", align 1

; Function Attrs: nofree nounwind sspstrong uwtable
define dso_local i32 @main() local_unnamed_addr #0 {
  %1 = alloca i32, align 4
  %2 = bitcast i32* %1 to i8*
  call void @llvm.lifetime.start.p0i8(i64 4, i8* nonnull %2) #3
  %3 = call i32 (i8*, ...) @__isoc99_scanf(i8* getelementptr inbounds ([3 x i8], [3 x i8]* @.str, i64 0, i64 0), i32* nonnull %1)
  %4 = load i32, i32* %1, align 4, !tbaa !5
  %5 = icmp slt i32 %4, 1
  br i1 %5, label %6, label %9

6:                                                ; preds = %29, %0
  %7 = phi i32 [ 0, %0 ], [ %30, %29 ]
  %8 = call i32 (i8*, ...) @printf(i8* nonnull dereferenceable(1) getelementptr inbounds ([3 x i8], [3 x i8]* @.str, i64 0, i64 0), i32 %7)
  call void @llvm.lifetime.end.p0i8(i64 4, i8* nonnull %2) #3
  ret i32 0

9:                                                ; preds = %0, %29
  %10 = phi i32 [ %31, %29 ], [ 1, %0 ]
  %11 = phi i32 [ %30, %29 ], [ 0, %0 ]
  %12 = urem i32 %10, 7
  %13 = icmp eq i32 %12, 0
  br i1 %13, label %29, label %14

14:                                               ; preds = %9
  %15 = add nsw i32 %10, -7
  %16 = srem i32 %15, 10
  %17 = icmp ne i32 %16, 0
  %18 = icmp ult i32 %10, 70
  %19 = select i1 %17, i1 %18, i1 false
  br i1 %19, label %20, label %23

20:                                               ; preds = %14
  %21 = mul nuw nsw i32 %10, %10
  %22 = add nsw i32 %21, %11
  br label %29

23:                                               ; preds = %14
  %24 = icmp ugt i32 %10, 79
  %25 = select i1 %17, i1 %24, i1 false
  br i1 %25, label %26, label %29

26:                                               ; preds = %23
  %27 = mul nsw i32 %10, %10
  %28 = add nsw i32 %27, %11
  br label %29

29:                                               ; preds = %9, %20, %26, %23
  %30 = phi i32 [ %22, %20 ], [ %28, %26 ], [ %11, %23 ], [ %11, %9 ]
  %31 = add nuw i32 %10, 1
  %32 = icmp eq i32 %10, %4
  br i1 %32, label %6, label %9, !llvm.loop !9
}

; Function Attrs: argmemonly mustprogress nofree nosync nounwind willreturn
declare void @llvm.lifetime.start.p0i8(i64 immarg, i8* nocapture) #1

; Function Attrs: nofree nounwind
declare noundef i32 @__isoc99_scanf(i8* nocapture noundef readonly, ...) local_unnamed_addr #2

; Function Attrs: argmemonly mustprogress nofree nosync nounwind willreturn
declare void @llvm.lifetime.end.p0i8(i64 immarg, i8* nocapture) #1

; Function Attrs: nofree nounwind
declare noundef i32 @printf(i8* nocapture noundef readonly, ...) local_unnamed_addr #2


!llvm.module.flags = !{!0, !1, !2, !3}
!llvm.ident = !{!4}

!0 = !{i32 1, !"wchar_size", i32 4}
!1 = !{i32 7, !"PIC Level", i32 2}
!2 = !{i32 7, !"PIE Level", i32 2}
!3 = !{i32 7, !"uwtable", i32 1}
!4 = !{!"clang version 13.0.0"}
!5 = !{!6, !6, i64 0}
!6 = !{!"int", !7, i64 0}
!7 = !{!"omnipotent char", !8, i64 0}
!8 = !{!"Simple C/C++ TBAA"}
!9 = distinct !{!9, !10}
!10 = !{!"llvm.loop.mustprogress"}
